; Function Attrs: nounwind uwtable
define dso_local i32 @nghttp2_session_consume_connection(ptr noundef %0, i64 noundef %1) local_unnamed_addr #1 {
  %3 = getelementptr inbounds nuw i8, ptr %0, i64 2828
  %4 = load i32, ptr %3, align 4, !tbaa !73
  %5 = and i32 %4, 1
  %.not = icmp eq i32 %5, 0
  br i1 %.not, label %15, label %6

6:                                                ; preds = %2
  %7 = getelementptr inbounds nuw i8, ptr %0, i64 2748
  %8 = getelementptr inbounds nuw i8, ptr %0, i64 2744
  %9 = getelementptr inbounds nuw i8, ptr %0, i64 2846
  %10 = load i8, ptr %9, align 2, !tbaa !147
  %11 = getelementptr inbounds nuw i8, ptr %0, i64 2756
  %12 = load i32, ptr %11, align 4, !tbaa !52
  %13 = tail call fastcc i32 @session_update_consumed_size(ptr noundef nonnull %0, ptr noundef nonnull %7, ptr noundef nonnull %8, i8 noundef zeroext %10, i32 noundef 0, i64 noundef %1, i32 noundef %12)
  %14 = icmp sgt i32 %13, -901
  %. = select i1 %14, i32 0, i32 %13
  br label %15

15:                                               ; preds = %6, %2
  %.0 = phi i32 [ -519, %2 ], [ %., %6 ]
  ret i32 %.0
}